target datalayout = "e-m:e-p270:32:32-p271:32:32-p272:64:64-i64:64-i128:128-f80:128-n8:16:32:64-S128"
target triple = "x86_64-pc-linux-gnu"

%struct.t_forcerec = type { %"class.std::unique_ptr", i32, i8, i32, %"class.std::vector", %"class.std::vector", i8, i8, i32, i32, i32, i32, float, %"struct.std::array", %"struct.std::array", %"struct.std::array", %"class.std::unique_ptr.4", float, %"class.std::unique_ptr.12", i32, %"class.std::vector.20", %"class.std::vector.25", %"class.std::vector", %"class.std::unique_ptr.30", %"class.std::unique_ptr.38", i32, %"class.std::vector.46", i32, i32, %"class.std::vector.51", ptr, i32, i32, i8, %"class.std::vector.56", %"class.std::vector.56", ptr, float, i32, float, i32, i32, i32, i32, float, float, float, float, %"class.std::unique_ptr.61", %"class.std::vector.69", %"class.std::unique_ptr.74", %"class.std::unique_ptr.82", ptr, ptr, ptr, %"class.std::unique_ptr.90", %"struct.gmx::EnumerationArray", %"struct.gmx::EnumerationArray.106" }
%"class.std::unique_ptr" = type { %"struct.std::__uniq_ptr_data" }
%"struct.std::__uniq_ptr_data" = type { %"class.std::__uniq_ptr_impl" }
%"class.std::__uniq_ptr_impl" = type { %"class.std::tuple" }
%"class.std::tuple" = type { %"struct.std::_Tuple_impl" }
%"struct.std::_Tuple_impl" = type { %"struct.std::_Head_base.3" }
%"struct.std::_Head_base.3" = type { ptr }
%"struct.std::array" = type { [2 x double] }
%"class.std::unique_ptr.4" = type { %"struct.std::__uniq_ptr_data.5" }
%"struct.std::__uniq_ptr_data.5" = type { %"class.std::__uniq_ptr_impl.6" }
%"class.std::__uniq_ptr_impl.6" = type { %"class.std::tuple.7" }
%"class.std::tuple.7" = type { %"struct.std::_Tuple_impl.8" }
%"struct.std::_Tuple_impl.8" = type { %"struct.std::_Head_base.11" }
%"struct.std::_Head_base.11" = type { ptr }
%"class.std::unique_ptr.12" = type { %"struct.std::__uniq_ptr_data.13" }
%"struct.std::__uniq_ptr_data.13" = type { %"class.std::__uniq_ptr_impl.14" }
%"class.std::__uniq_ptr_impl.14" = type { %"class.std::tuple.15" }
%"class.std::tuple.15" = type { %"struct.std::_Tuple_impl.16" }
%"struct.std::_Tuple_impl.16" = type { %"struct.std::_Head_base.19" }
%"struct.std::_Head_base.19" = type { ptr }
%"class.std::vector.20" = type { %"struct.std::_Vector_base.21" }
%"struct.std::_Vector_base.21" = type { %"struct.std::_Vector_base<gmx::AtomInfoWithinMoleculeBlock, std::allocator<gmx::AtomInfoWithinMoleculeBlock>>::_Vector_impl" }
%"struct.std::_Vector_base<gmx::AtomInfoWithinMoleculeBlock, std::allocator<gmx::AtomInfoWithinMoleculeBlock>>::_Vector_impl" = type { %"struct.std::_Vector_base<gmx::AtomInfoWithinMoleculeBlock, std::allocator<gmx::AtomInfoWithinMoleculeBlock>>::_Vector_impl_data" }
%"struct.std::_Vector_base<gmx::AtomInfoWithinMoleculeBlock, std::allocator<gmx::AtomInfoWithinMoleculeBlock>>::_Vector_impl_data" = type { ptr, ptr, ptr }
%"class.std::vector.25" = type { %"struct.std::_Vector_base.26" }
%"struct.std::_Vector_base.26" = type { %"struct.std::_Vector_base<int, std::allocator<int>>::_Vector_impl" }
%"struct.std::_Vector_base<int, std::allocator<int>>::_Vector_impl" = type { %"struct.std::_Vector_base<int, std::allocator<int>>::_Vector_impl_data" }
%"struct.std::_Vector_base<int, std::allocator<int>>::_Vector_impl_data" = type { ptr, ptr, ptr }
%"class.std::vector" = type { %"struct.std::_Vector_base" }
%"struct.std::_Vector_base" = type { %"struct.std::_Vector_base<gmx::BasicVector<float>, std::allocator<gmx::BasicVector<float>>>::_Vector_impl" }
%"struct.std::_Vector_base<gmx::BasicVector<float>, std::allocator<gmx::BasicVector<float>>>::_Vector_impl" = type { %"struct.std::_Vector_base<gmx::BasicVector<float>, std::allocator<gmx::BasicVector<float>>>::_Vector_impl_data" }
%"struct.std::_Vector_base<gmx::BasicVector<float>, std::allocator<gmx::BasicVector<float>>>::_Vector_impl_data" = type { ptr, ptr, ptr }
%"class.std::unique_ptr.30" = type { %"struct.std::__uniq_ptr_data.31" }
%"struct.std::__uniq_ptr_data.31" = type { %"class.std::__uniq_ptr_impl.32" }
%"class.std::__uniq_ptr_impl.32" = type { %"class.std::tuple.33" }
%"class.std::tuple.33" = type { %"struct.std::_Tuple_impl.34" }
%"struct.std::_Tuple_impl.34" = type { %"struct.std::_Head_base.37" }
%"struct.std::_Head_base.37" = type { ptr }
%"class.std::unique_ptr.38" = type { %"struct.std::__uniq_ptr_data.39" }
%"struct.std::__uniq_ptr_data.39" = type { %"class.std::__uniq_ptr_impl.40" }
%"class.std::__uniq_ptr_impl.40" = type { %"class.std::tuple.41" }
%"class.std::tuple.41" = type { %"struct.std::_Tuple_impl.42" }
%"struct.std::_Tuple_impl.42" = type { %"struct.std::_Head_base.45" }
%"struct.std::_Head_base.45" = type { ptr }
%"class.std::vector.46" = type { %"struct.std::_Vector_base.47" }
%"struct.std::_Vector_base.47" = type { %"struct.std::_Vector_base<std::vector<std::unique_ptr<t_forcetable>>, std::allocator<std::vector<std::unique_ptr<t_forcetable>>>>::_Vector_impl" }
%"struct.std::_Vector_base<std::vector<std::unique_ptr<t_forcetable>>, std::allocator<std::vector<std::unique_ptr<t_forcetable>>>>::_Vector_impl" = type { %"struct.std::_Vector_base<std::vector<std::unique_ptr<t_forcetable>>, std::allocator<std::vector<std::unique_ptr<t_forcetable>>>>::_Vector_impl_data" }
%"struct.std::_Vector_base<std::vector<std::unique_ptr<t_forcetable>>, std::allocator<std::vector<std::unique_ptr<t_forcetable>>>>::_Vector_impl_data" = type { ptr, ptr, ptr }
%"class.std::vector.51" = type { %"struct.std::_Vector_base.52" }
%"struct.std::_Vector_base.52" = type { %"struct.std::_Vector_base<ForceHelperBuffers, std::allocator<ForceHelperBuffers>>::_Vector_impl" }
%"struct.std::_Vector_base<ForceHelperBuffers, std::allocator<ForceHelperBuffers>>::_Vector_impl" = type { %"struct.std::_Vector_base<ForceHelperBuffers, std::allocator<ForceHelperBuffers>>::_Vector_impl_data" }
%"struct.std::_Vector_base<ForceHelperBuffers, std::allocator<ForceHelperBuffers>>::_Vector_impl_data" = type { ptr, ptr, ptr }
%"class.std::vector.56" = type { %"struct.std::_Vector_base.57" }
%"struct.std::_Vector_base.57" = type { %"struct.std::_Vector_base<float, std::allocator<float>>::_Vector_impl" }
%"struct.std::_Vector_base<float, std::allocator<float>>::_Vector_impl" = type { %"struct.std::_Vector_base<float, std::allocator<float>>::_Vector_impl_data" }
%"struct.std::_Vector_base<float, std::allocator<float>>::_Vector_impl_data" = type { ptr, ptr, ptr }
%"class.std::unique_ptr.61" = type { %"struct.std::__uniq_ptr_data.62" }
%"struct.std::__uniq_ptr_data.62" = type { %"class.std::__uniq_ptr_impl.63" }
%"class.std::__uniq_ptr_impl.63" = type { %"class.std::tuple.64" }
%"class.std::tuple.64" = type { %"struct.std::_Tuple_impl.65" }
%"struct.std::_Tuple_impl.65" = type { %"struct.std::_Head_base.68" }
%"struct.std::_Head_base.68" = type { ptr }
%"class.std::vector.69" = type { %"struct.std::_Vector_base.70" }
%"struct.std::_Vector_base.70" = type { %"struct.std::_Vector_base<ListedForces, std::allocator<ListedForces>>::_Vector_impl" }
%"struct.std::_Vector_base<ListedForces, std::allocator<ListedForces>>::_Vector_impl" = type { %"struct.std::_Vector_base<ListedForces, std::allocator<ListedForces>>::_Vector_impl_data" }
%"struct.std::_Vector_base<ListedForces, std::allocator<ListedForces>>::_Vector_impl_data" = type { ptr, ptr, ptr }
%"class.std::unique_ptr.74" = type { %"struct.std::__uniq_ptr_data.75" }
%"struct.std::__uniq_ptr_data.75" = type { %"class.std::__uniq_ptr_impl.76" }
%"class.std::__uniq_ptr_impl.76" = type { %"class.std::tuple.77" }
%"class.std::tuple.77" = type { %"struct.std::_Tuple_impl.78" }
%"struct.std::_Tuple_impl.78" = type { %"struct.std::_Head_base.81" }
%"struct.std::_Head_base.81" = type { ptr }
%"class.std::unique_ptr.82" = type { %"struct.std::__uniq_ptr_data.83" }
%"struct.std::__uniq_ptr_data.83" = type { %"class.std::__uniq_ptr_impl.84" }
%"class.std::__uniq_ptr_impl.84" = type { %"class.std::tuple.85" }
%"class.std::tuple.85" = type { %"struct.std::_Tuple_impl.86" }
%"struct.std::_Tuple_impl.86" = type { %"struct.std::_Head_base.89" }
%"struct.std::_Head_base.89" = type { ptr }
%"class.std::unique_ptr.90" = type { %"struct.std::__uniq_ptr_data.91" }
%"struct.std::__uniq_ptr_data.91" = type { %"class.std::__uniq_ptr_impl.92" }
%"class.std::__uniq_ptr_impl.92" = type { %"class.std::tuple.93" }
%"class.std::tuple.93" = type { %"struct.std::_Tuple_impl.94" }
%"struct.std::_Tuple_impl.94" = type { %"struct.std::_Head_base.97" }
%"struct.std::_Head_base.97" = type { ptr }
%"struct.gmx::EnumerationArray" = type { [3 x %"class.std::unique_ptr.98"] }
%"class.std::unique_ptr.98" = type { %"struct.std::__uniq_ptr_data.99" }
%"struct.std::__uniq_ptr_data.99" = type { %"class.std::__uniq_ptr_impl.100" }
%"class.std::__uniq_ptr_impl.100" = type { %"class.std::tuple.101" }
%"class.std::tuple.101" = type { %"struct.std::_Tuple_impl.102" }
%"struct.std::_Tuple_impl.102" = type { %"struct.std::_Head_base.105" }
%"struct.std::_Head_base.105" = type { ptr }
%"struct.gmx::EnumerationArray.106" = type { [2 x %"class.std::unique_ptr.107"] }
%"class.std::unique_ptr.107" = type { %"struct.std::__uniq_ptr_data.108" }
%"struct.std::__uniq_ptr_data.108" = type { %"class.std::__uniq_ptr_impl.109" }
%"class.std::__uniq_ptr_impl.109" = type { %"class.std::tuple.110" }
%"class.std::tuple.110" = type { %"struct.std::_Tuple_impl.111" }
%"struct.std::_Tuple_impl.111" = type { %"struct.std::_Head_base.114" }
%"struct.std::_Head_base.114" = type { ptr }
%"class.gmx::PmeLoadBalanceHelper" = type { %"class.gmx::INeighborSearchSignallerClient", ptr, i64, i8, i8, ptr, ptr, ptr, ptr, ptr, ptr, ptr }
%"class.gmx::INeighborSearchSignallerClient" = type { ptr }
%"struct.gmx::nonbonded_verlet_t" = type { %"class.std::unique_ptr.210", %"class.std::unique_ptr.218", %"class.std::unique_ptr.226", %"struct.gmx::NbnxmKernelSetup", %"class.std::unique_ptr.234", %"class.std::unique_ptr.242", ptr, ptr }
%"class.std::unique_ptr.210" = type { %"struct.std::__uniq_ptr_data.211" }
%"struct.std::__uniq_ptr_data.211" = type { %"class.std::__uniq_ptr_impl.212" }
%"class.std::__uniq_ptr_impl.212" = type { %"class.std::tuple.213" }
%"class.std::tuple.213" = type { %"struct.std::_Tuple_impl.214" }
%"struct.std::_Tuple_impl.214" = type { %"struct.std::_Head_base.217" }
%"struct.std::_Head_base.217" = type { ptr }
%"class.std::unique_ptr.218" = type { %"struct.std::__uniq_ptr_data.219" }
%"struct.std::__uniq_ptr_data.219" = type { %"class.std::__uniq_ptr_impl.220" }
%"class.std::__uniq_ptr_impl.220" = type { %"class.std::tuple.221" }
%"class.std::tuple.221" = type { %"struct.std::_Tuple_impl.222" }
%"struct.std::_Tuple_impl.222" = type { %"struct.std::_Head_base.225" }
%"struct.std::_Head_base.225" = type { ptr }
%"class.std::unique_ptr.226" = type { %"struct.std::__uniq_ptr_data.227" }
%"struct.std::__uniq_ptr_data.227" = type { %"class.std::__uniq_ptr_impl.228" }
%"class.std::__uniq_ptr_impl.228" = type { %"class.std::tuple.229" }
%"class.std::tuple.229" = type { %"struct.std::_Tuple_impl.230" }
%"struct.std::_Tuple_impl.230" = type { %"struct.std::_Head_base.233" }
%"struct.std::_Head_base.233" = type { ptr }
%"struct.gmx::NbnxmKernelSetup" = type { i32, i32 }
%"class.std::unique_ptr.234" = type { %"struct.std::__uniq_ptr_data.235" }
%"struct.std::__uniq_ptr_data.235" = type { %"class.std::__uniq_ptr_impl.236" }
%"class.std::__uniq_ptr_impl.236" = type { %"class.std::tuple.237" }
%"class.std::tuple.237" = type { %"struct.std::_Tuple_impl.238" }
%"struct.std::_Tuple_impl.238" = type { %"struct.std::_Head_base.241" }
%"struct.std::_Head_base.241" = type { ptr }
%"class.std::unique_ptr.242" = type { %"struct.std::__uniq_ptr_data.243" }
%"struct.std::__uniq_ptr_data.243" = type { %"class.std::__uniq_ptr_impl.244" }
%"class.std::__uniq_ptr_impl.244" = type { %"class.std::tuple.245" }
%"class.std::tuple.245" = type { %"struct.std::_Tuple_impl.246" }
%"struct.std::_Tuple_impl.246" = type { %"struct.std::_Head_base.249" }
%"struct.std::_Head_base.249" = type { ptr }

; Function Attrs: mustprogress nounwind uwtable
define linkonce_odr noundef nonnull align 8 dereferenceable(8) ptr @_ZNSt10_Head_baseILm0EPN3gmx18nonbonded_verlet_tELb0EE7_M_headERKS3_(ptr noundef nonnull align 8 dereferenceable(8) %0) #0 comdat align 2 {
  %2 = alloca ptr, align 8
  store ptr %0, ptr %2, align 8, !tbaa !321
  %3 = load ptr, ptr %2, align 8, !tbaa !321
  %4 = getelementptr inbounds nuw %"struct.std::_Head_base.45", ptr %3, i32 0, i32 0
  ret ptr %4
}

; Function Attrs: mustprogress nounwind uwtable
define linkonce_odr noundef nonnull align 8 dereferenceable(8) ptr @_ZNSt11_Tuple_implILm0EJPN3gmx18nonbonded_verlet_tESt14default_deleteIS1_EEE7_M_headERKS5_(ptr noundef nonnull align 8 dereferenceable(8) %0) #0 comdat align 2 {
  %2 = alloca ptr, align 8
  store ptr %0, ptr %2, align 8, !tbaa !319
  %3 = load ptr, ptr %2, align 8, !tbaa !319
  %4 = call noundef nonnull align 8 dereferenceable(8) ptr @_ZNSt10_Head_baseILm0EPN3gmx18nonbonded_verlet_tELb0EE7_M_headERKS3_(ptr noundef nonnull align 8 dereferenceable(8) %3) #12
  ret ptr %4
}

; Function Attrs: mustprogress nounwind uwtable
define linkonce_odr noundef nonnull align 8 dereferenceable(8) ptr @_ZSt12__get_helperILm0EPN3gmx18nonbonded_verlet_tEJSt14default_deleteIS1_EEERKT0_RKSt11_Tuple_implIXT_EJS5_DpT1_EE(ptr noundef nonnull align 8 dereferenceable(8) %0) #0 comdat {
  %2 = alloca ptr, align 8
  store ptr %0, ptr %2, align 8, !tbaa !319
  %3 = load ptr, ptr %2, align 8, !tbaa !319
  %4 = call noundef nonnull align 8 dereferenceable(8) ptr @_ZNSt11_Tuple_implILm0EJPN3gmx18nonbonded_verlet_tESt14default_deleteIS1_EEE7_M_headERKS5_(ptr noundef nonnull align 8 dereferenceable(8) %3) #12
  ret ptr %4
}

; Function Attrs: mustprogress nounwind uwtable
define linkonce_odr noundef nonnull align 8 dereferenceable(8) ptr @_ZSt3getILm0EJPN3gmx18nonbonded_verlet_tESt14default_deleteIS1_EEERKNSt13tuple_elementIXT_ESt5tupleIJDpT0_EEE4typeERKS9_(ptr noundef nonnull align 8 dereferenceable(8) %0) #0 comdat {
  %2 = alloca ptr, align 8
  store ptr %0, ptr %2, align 8, !tbaa !317
  %3 = load ptr, ptr %2, align 8, !tbaa !317
  %4 = call noundef nonnull align 8 dereferenceable(8) ptr @_ZSt12__get_helperILm0EPN3gmx18nonbonded_verlet_tEJSt14default_deleteIS1_EEERKT0_RKSt11_Tuple_implIXT_EJS5_DpT1_EE(ptr noundef nonnull align 8 dereferenceable(8) %3) #12
  ret ptr %4
}

; Function Attrs: mustprogress nounwind uwtable
define linkonce_odr noundef ptr @_ZNKSt15__uniq_ptr_implIN3gmx18nonbonded_verlet_tESt14default_deleteIS1_EE6_M_ptrEv(ptr noundef nonnull align 8 dereferenceable(8) %0) #0 comdat align 2 {
  %2 = alloca ptr, align 8
  store ptr %0, ptr %2, align 8, !tbaa !315
  %3 = load ptr, ptr %2, align 8
  %4 = getelementptr inbounds nuw %"class.std::__uniq_ptr_impl.40", ptr %3, i32 0, i32 0
  %5 = call noundef nonnull align 8 dereferenceable(8) ptr @_ZSt3getILm0EJPN3gmx18nonbonded_verlet_tESt14default_deleteIS1_EEERKNSt13tuple_elementIXT_ESt5tupleIJDpT0_EEE4typeERKS9_(ptr noundef nonnull align 8 dereferenceable(8) %4) #12
  %6 = load ptr, ptr %5, align 8, !tbaa !273
  ret ptr %6
}

; Function Attrs: mustprogress nounwind uwtable
define internal noundef zeroext i1 @_ZN3gmxL15isGpuKernelTypeENS_15NbnxmKernelTypeE(i32 noundef %0) #0 {
  %2 = alloca i32, align 4
  store i32 %0, ptr %2, align 4, !tbaa !323
  %3 = load i32, ptr %2, align 4, !tbaa !323
  %4 = icmp eq i32 %3, 4
  ret i1 %4
}

; Function Attrs: mustprogress nounwind uwtable
define linkonce_odr noundef ptr @_ZNKSt10unique_ptrIN3gmx18nonbonded_verlet_tESt14default_deleteIS1_EE3getEv(ptr noundef nonnull align 8 dereferenceable(8) %0) #0 comdat align 2 {
  %2 = alloca ptr, align 8
  store ptr %0, ptr %2, align 8, !tbaa !271
  %3 = load ptr, ptr %2, align 8
  %4 = getelementptr inbounds nuw %"class.std::unique_ptr.38", ptr %3, i32 0, i32 0
  %5 = call noundef ptr @_ZNKSt15__uniq_ptr_implIN3gmx18nonbonded_verlet_tESt14default_deleteIS1_EE6_M_ptrEv(ptr noundef nonnull align 8 dereferenceable(8) %4) #12
  ret ptr %5
}

; Function Attrs: mustprogress uwtable
define linkonce_odr noundef zeroext i1 @_ZNK3gmx18nonbonded_verlet_t6useGpuEv(ptr noundef nonnull align 8 dereferenceable(64) %0) #2 comdat align 2 {
  %2 = alloca ptr, align 8
  store ptr %0, ptr %2, align 8, !tbaa !273
  %3 = load ptr, ptr %2, align 8
  %4 = getelementptr inbounds nuw %"struct.gmx::nonbonded_verlet_t", ptr %3, i32 0, i32 3
  %5 = getelementptr inbounds nuw %"struct.gmx::NbnxmKernelSetup", ptr %4, i32 0, i32 0
  %6 = load i32, ptr %5, align 8, !tbaa !274
  %7 = call noundef zeroext i1 @_ZN3gmxL15isGpuKernelTypeENS_15NbnxmKernelTypeE(i32 noundef %6)
  ret i1 %7
}

; Function Attrs: mustprogress nounwind uwtable
define linkonce_odr noundef ptr @_ZNKSt10unique_ptrIN3gmx18nonbonded_verlet_tESt14default_deleteIS1_EEptEv(ptr noundef nonnull align 8 dereferenceable(8) %0) #0 comdat align 2 {
  %2 = alloca ptr, align 8
  store ptr %0, ptr %2, align 8, !tbaa !271
  %3 = load ptr, ptr %2, align 8
  %4 = call noundef ptr @_ZNKSt10unique_ptrIN3gmx18nonbonded_verlet_tESt14default_deleteIS1_EE3getEv(ptr noundef nonnull align 8 dereferenceable(8) %3) #12
  ret ptr %4
}

; Function Attrs: mustprogress uwtable
define void @_ZN3gmx20PmeLoadBalanceHelper8teardownEv(ptr noundef nonnull align 8 dereferenceable(88) %0) #2 align 2 {
  %2 = alloca ptr, align 8
  store ptr %0, ptr %2, align 8, !tbaa !9
  %3 = load ptr, ptr %2, align 8
  %4 = getelementptr inbounds nuw %"class.gmx::PmeLoadBalanceHelper", ptr %3, i32 0, i32 1
  %5 = load ptr, ptr %4, align 8, !tbaa !154
  %6 = getelementptr inbounds nuw %"class.gmx::PmeLoadBalanceHelper", ptr %3, i32 0, i32 6
  %7 = load ptr, ptr %6, align 8, !tbaa !162
  %8 = getelementptr inbounds nuw %"class.gmx::PmeLoadBalanceHelper", ptr %3, i32 0, i32 8
  %9 = load ptr, ptr %8, align 8, !tbaa !169
  %10 = getelementptr inbounds nuw %"class.gmx::PmeLoadBalanceHelper", ptr %3, i32 0, i32 11
  %11 = load ptr, ptr %10, align 8, !tbaa !166
  %12 = getelementptr inbounds nuw %struct.t_forcerec, ptr %11, i32 0, i32 24
  %13 = call noundef ptr @_ZNKSt10unique_ptrIN3gmx18nonbonded_verlet_tESt14default_deleteIS1_EEptEv(ptr noundef nonnull align 8 dereferenceable(8) %12) #12
  %14 = call noundef zeroext i1 @_ZNK3gmx18nonbonded_verlet_t6useGpuEv(ptr noundef nonnull align 8 dereferenceable(64) %13)
  call void @_Z16pme_loadbal_doneP20pme_load_balancing_tP8_IO_FILERKN3gmx8MDLoggerEb(ptr noundef %5, ptr noundef %7, ptr noundef nonnull align 8 dereferenceable(40) %9, i1 noundef zeroext %14)
  ret void
}