; Function Attrs: mustprogress uwtable
define void @_ZN3gmx20PmeLoadBalanceHelper8teardownEv(ptr noundef nonnull readonly align 8 captures(none) dereferenceable(88) %0) local_unnamed_addr #4 align 2 {
  %2 = getelementptr inbounds nuw i8, ptr %0, i64 8
  %3 = load ptr, ptr %2, align 8, !tbaa !126
  %4 = getelementptr inbounds nuw i8, ptr %0, i64 40
  %5 = load ptr, ptr %4, align 8, !tbaa !141
  %6 = getelementptr inbounds nuw i8, ptr %0, i64 56
  %7 = load ptr, ptr %6, align 8, !tbaa !148
  %8 = getelementptr inbounds nuw i8, ptr %0, i64 80
  %9 = load ptr, ptr %8, align 8, !tbaa !146
  %10 = getelementptr inbounds nuw i8, ptr %9, i64 256
  %11 = load ptr, ptr %10, align 8, !tbaa !149
  %12 = getelementptr inbounds nuw i8, ptr %11, i64 24
  %13 = load i32, ptr %12, align 8, !tbaa !251
  %14 = icmp eq i32 %13, 4
  tail call void @_Z16pme_loadbal_doneP20pme_load_balancing_tP8_IO_FILERKN3gmx8MDLoggerEb(ptr noundef %3, ptr noundef %5, ptr noundef nonnull align 8 dereferenceable(40) %7, i1 noundef zeroext %14)
  ret void
}